target datalayout = "e-m:e-p270:32:32-p271:32:32-p272:64:64-i64:64-i128:128-f80:128-n8:16:32:64-S128"
target triple = "x86_64-pc-linux-gnu"

%"struct.std::nothrow_t" = type { i8 }
%"class.marisa::grimoire::trie::Tail" = type { %"class.marisa::grimoire::vector::Vector", %"class.marisa::grimoire::vector::BitVector" }
%"class.marisa::grimoire::vector::Vector" = type <{ %"class.marisa::scoped_array", ptr, ptr, i64, i64, i8, [7 x i8] }>
%"class.marisa::scoped_array" = type { ptr }
%"class.marisa::grimoire::vector::BitVector" = type { %"class.marisa::grimoire::vector::Vector.0", i64, i64, %"class.marisa::grimoire::vector::Vector.2", %"class.marisa::grimoire::vector::Vector.4", %"class.marisa::grimoire::vector::Vector.4" }
%"class.marisa::grimoire::vector::Vector.0" = type <{ %"class.marisa::scoped_array", ptr, ptr, i64, i64, i8, [7 x i8] }>
%"class.marisa::grimoire::vector::Vector.2" = type <{ %"class.marisa::scoped_array", ptr, ptr, i64, i64, i8, [7 x i8] }>
%"class.marisa::grimoire::vector::Vector.4" = type <{ %"class.marisa::scoped_array", ptr, ptr, i64, i64, i8, [7 x i8] }>
%"class.marisa::Agent" = type { %"class.marisa::Query", %"class.marisa::Key", %"class.marisa::scoped_ptr" }
%"class.marisa::Query" = type { ptr, i64, i64 }
%"class.marisa::Key" = type { ptr, i32, %"union.marisa::Key::Union" }
%"union.marisa::Key::Union" = type { i32 }
%"class.marisa::scoped_ptr" = type { ptr }
%"class.marisa::grimoire::trie::State" = type { %"class.marisa::grimoire::vector::Vector", %"class.marisa::grimoire::vector::Vector.8", i32, i32, i32, i32 }
%"class.marisa::grimoire::vector::Vector.8" = type <{ %"class.marisa::scoped_array", ptr, ptr, i64, i64, i8, [7 x i8] }>

@_ZSt7nothrow = external global %"struct.std::nothrow_t", align 1

; Function Attrs: mustprogress nounwind uwtable
define linkonce_odr void @_ZSt4swapIPcENSt9enable_ifIXsr6__and_ISt6__not_ISt15__is_tuple_likeIT_EESt21is_move_constructibleIS4_ESt18is_move_assignableIS4_EEE5valueEvE4typeERS4_SD_(ptr noundef nonnull align 8 dereferenceable(8) %0, ptr noundef nonnull align 8 dereferenceable(8) %1) #5 comdat {
  %3 = alloca ptr, align 8
  %4 = alloca ptr, align 8
  %5 = alloca ptr, align 8
  store ptr %0, ptr %3, align 8
  store ptr %1, ptr %4, align 8
  %6 = load ptr, ptr %3, align 8
  %7 = load ptr, ptr %6, align 8
  store ptr %7, ptr %5, align 8
  %8 = load ptr, ptr %4, align 8
  %9 = load ptr, ptr %8, align 8
  %10 = load ptr, ptr %3, align 8
  store ptr %9, ptr %10, align 8
  %11 = load ptr, ptr %5, align 8
  %12 = load ptr, ptr %4, align 8
  store ptr %11, ptr %12, align 8
  ret void
}

; Function Attrs: mustprogress nounwind uwtable
define linkonce_odr void @_ZN6marisa12scoped_arrayIcED2Ev(ptr noundef nonnull align 8 dereferenceable(8) %0) unnamed_addr #5 comdat align 2 {
  %2 = alloca ptr, align 8
  store ptr %0, ptr %2, align 8
  %3 = load ptr, ptr %2, align 8
  %4 = getelementptr inbounds %"class.marisa::scoped_array", ptr %3, i32 0, i32 0
  %5 = load ptr, ptr %4, align 8
  %6 = icmp eq ptr %5, null
  br i1 %6, label %8, label %7

7:                                                ; preds = %1
  call void @_ZdaPv(ptr noundef %5) #10
  br label %8

8:                                                ; preds = %7, %1
  ret void
}

; Function Attrs: mustprogress nounwind uwtable
define linkonce_odr void @_ZN6marisa12scoped_arrayIcE4swapERS1_(ptr noundef nonnull align 8 dereferenceable(8) %0, ptr noundef nonnull align 8 dereferenceable(8) %1) #5 comdat align 2 {
  %3 = alloca ptr, align 8
  %4 = alloca ptr, align 8
  store ptr %0, ptr %3, align 8
  store ptr %1, ptr %4, align 8
  %5 = load ptr, ptr %3, align 8
  %6 = getelementptr inbounds %"class.marisa::scoped_array", ptr %5, i32 0, i32 0
  %7 = load ptr, ptr %4, align 8
  %8 = getelementptr inbounds %"class.marisa::scoped_array", ptr %7, i32 0, i32 0
  call void @_ZSt4swapIPcENSt9enable_ifIXsr6__and_ISt6__not_ISt15__is_tuple_likeIT_EESt21is_move_constructibleIS4_ESt18is_move_assignableIS4_EEE5valueEvE4typeERS4_SD_(ptr noundef nonnull align 8 dereferenceable(8) %6, ptr noundef nonnull align 8 dereferenceable(8) %8) #3
  ret void
}

; Function Attrs: mustprogress nounwind uwtable
define linkonce_odr noundef ptr @_ZNK6marisa12scoped_arrayIcE3getEv(ptr noundef nonnull align 8 dereferenceable(8) %0) #5 comdat align 2 {
  %2 = alloca ptr, align 8
  store ptr %0, ptr %2, align 8
  %3 = load ptr, ptr %2, align 8
  %4 = getelementptr inbounds %"class.marisa::scoped_array", ptr %3, i32 0, i32 0
  %5 = load ptr, ptr %4, align 8
  ret ptr %5
}

; Function Attrs: mustprogress nounwind uwtable
define linkonce_odr void @_ZN6marisa12scoped_arrayIcEC2EPc(ptr noundef nonnull align 8 dereferenceable(8) %0, ptr noundef %1) unnamed_addr #5 comdat align 2 {
  %3 = alloca ptr, align 8
  %4 = alloca ptr, align 8
  store ptr %0, ptr %3, align 8
  store ptr %1, ptr %4, align 8
  %5 = load ptr, ptr %3, align 8
  %6 = getelementptr inbounds %"class.marisa::scoped_array", ptr %5, i32 0, i32 0
  %7 = load ptr, ptr %4, align 8
  store ptr %7, ptr %6, align 8
  ret void
}

; Function Attrs: mustprogress uwtable
define linkonce_odr void @_ZN6marisa8grimoire6vector6VectorIcE7reallocEm(ptr noundef nonnull align 8 dereferenceable(41) %0, i64 noundef %1) #4 comdat align 2 {
  %3 = alloca ptr, align 8
  %4 = alloca i64, align 8
  %5 = alloca %"class.marisa::scoped_array", align 8
  %6 = alloca ptr, align 8
  %7 = alloca i64, align 8
  %8 = alloca i64, align 8
  store ptr %0, ptr %3, align 8
  store i64 %1, ptr %4, align 8
  %9 = load ptr, ptr %3, align 8
  %10 = load i64, ptr %4, align 8
  %11 = mul i64 1, %10
  %12 = call noalias noundef ptr @_ZnamRKSt9nothrow_t(i64 noundef %11, ptr noundef nonnull align 1 dereferenceable(1) @_ZSt7nothrow) #11
  call void @_ZN6marisa12scoped_arrayIcEC2EPc(ptr noundef nonnull align 8 dereferenceable(8) %5, ptr noundef %12)
  %13 = call noundef ptr @_ZNK6marisa12scoped_arrayIcE3getEv(ptr noundef nonnull align 8 dereferenceable(8) %5)
  store ptr %13, ptr %6, align 8
  store i64 0, ptr %7, align 8
  br label %14

14:                                               ; preds = %28, %2
  %15 = load i64, ptr %7, align 8
  %16 = getelementptr inbounds %"class.marisa::grimoire::vector::Vector", ptr %9, i32 0, i32 3
  %17 = load i64, ptr %16, align 8
  %18 = icmp ult i64 %15, %17
  br i1 %18, label %19, label %31

19:                                               ; preds = %14
  %20 = load ptr, ptr %6, align 8
  %21 = load i64, ptr %7, align 8
  %22 = getelementptr inbounds i8, ptr %20, i64 %21
  %23 = getelementptr inbounds %"class.marisa::grimoire::vector::Vector", ptr %9, i32 0, i32 1
  %24 = load ptr, ptr %23, align 8
  %25 = load i64, ptr %7, align 8
  %26 = getelementptr inbounds i8, ptr %24, i64 %25
  %27 = load i8, ptr %26, align 1
  store i8 %27, ptr %22, align 1
  br label %28

28:                                               ; preds = %19
  %29 = load i64, ptr %7, align 8
  %30 = add i64 %29, 1
  store i64 %30, ptr %7, align 8
  br label %14, !llvm.loop !40

31:                                               ; preds = %14
  store i64 0, ptr %8, align 8
  br label %32

32:                                               ; preds = %38, %31
  %33 = load i64, ptr %8, align 8
  %34 = getelementptr inbounds %"class.marisa::grimoire::vector::Vector", ptr %9, i32 0, i32 3
  %35 = load i64, ptr %34, align 8
  %36 = icmp ult i64 %33, %35
  br i1 %36, label %37, label %41

37:                                               ; preds = %32
  br label %38

38:                                               ; preds = %37
  %39 = load i64, ptr %8, align 8
  %40 = add i64 %39, 1
  store i64 %40, ptr %8, align 8
  br label %32, !llvm.loop !41

41:                                               ; preds = %32
  %42 = getelementptr inbounds %"class.marisa::grimoire::vector::Vector", ptr %9, i32 0, i32 0
  call void @_ZN6marisa12scoped_arrayIcE4swapERS1_(ptr noundef nonnull align 8 dereferenceable(8) %42, ptr noundef nonnull align 8 dereferenceable(8) %5)
  %43 = load ptr, ptr %6, align 8
  %44 = getelementptr inbounds %"class.marisa::grimoire::vector::Vector", ptr %9, i32 0, i32 1
  store ptr %43, ptr %44, align 8
  %45 = load ptr, ptr %6, align 8
  %46 = getelementptr inbounds %"class.marisa::grimoire::vector::Vector", ptr %9, i32 0, i32 2
  store ptr %45, ptr %46, align 8
  %47 = load i64, ptr %4, align 8
  %48 = getelementptr inbounds %"class.marisa::grimoire::vector::Vector", ptr %9, i32 0, i32 4
  store i64 %47, ptr %48, align 8
  call void @_ZN6marisa12scoped_arrayIcED2Ev(ptr noundef nonnull align 8 dereferenceable(8) %5) #3
  ret void
}

; Function Attrs: mustprogress nounwind uwtable
define linkonce_odr noundef i64 @_ZN6marisa8grimoire6vector6VectorIcE8max_sizeEv() #5 comdat align 2 {
  ret i64 -1
}

; Function Attrs: mustprogress nounwind uwtable
define linkonce_odr noundef nonnull align 8 dereferenceable(8) ptr @_ZNK6marisa8grimoire6vector6VectorImEixEm(ptr noundef nonnull align 8 dereferenceable(41) %0, i64 noundef %1) #5 comdat align 2 {
  %3 = alloca ptr, align 8
  %4 = alloca i64, align 8
  store ptr %0, ptr %3, align 8
  store i64 %1, ptr %4, align 8
  %5 = load ptr, ptr %3, align 8
  %6 = getelementptr inbounds %"class.marisa::grimoire::vector::Vector.0", ptr %5, i32 0, i32 2
  %7 = load ptr, ptr %6, align 8
  %8 = load i64, ptr %4, align 8
  %9 = getelementptr inbounds i64, ptr %7, i64 %8
  ret ptr %9
}

; Function Attrs: mustprogress uwtable
define linkonce_odr void @_ZN6marisa8grimoire6vector6VectorIcE7reserveEm(ptr noundef nonnull align 8 dereferenceable(41) %0, i64 noundef %1) #4 comdat align 2 {
  %3 = alloca ptr, align 8
  %4 = alloca i64, align 8
  %5 = alloca i64, align 8
  store ptr %0, ptr %3, align 8
  store i64 %1, ptr %4, align 8
  %6 = load ptr, ptr %3, align 8
  %7 = load i64, ptr %4, align 8
  %8 = getelementptr inbounds %"class.marisa::grimoire::vector::Vector", ptr %6, i32 0, i32 4
  %9 = load i64, ptr %8, align 8
  %10 = icmp ule i64 %7, %9
  br i1 %10, label %11, label %12

11:                                               ; preds = %2
  br label %34

12:                                               ; preds = %2
  %13 = load i64, ptr %4, align 8
  store i64 %13, ptr %5, align 8
  %14 = getelementptr inbounds %"class.marisa::grimoire::vector::Vector", ptr %6, i32 0, i32 4
  %15 = load i64, ptr %14, align 8
  %16 = load i64, ptr %4, align 8
  %17 = udiv i64 %16, 2
  %18 = icmp ugt i64 %15, %17
  br i1 %18, label %19, label %32

19:                                               ; preds = %12
  %20 = getelementptr inbounds %"class.marisa::grimoire::vector::Vector", ptr %6, i32 0, i32 4
  %21 = load i64, ptr %20, align 8
  %22 = call noundef i64 @_ZN6marisa8grimoire6vector6VectorIcE8max_sizeEv()
  %23 = udiv i64 %22, 2
  %24 = icmp ugt i64 %21, %23
  br i1 %24, label %25, label %27

25:                                               ; preds = %19
  %26 = call noundef i64 @_ZN6marisa8grimoire6vector6VectorIcE8max_sizeEv()
  store i64 %26, ptr %5, align 8
  br label %31

27:                                               ; preds = %19
  %28 = getelementptr inbounds %"class.marisa::grimoire::vector::Vector", ptr %6, i32 0, i32 4
  %29 = load i64, ptr %28, align 8
  %30 = mul i64 %29, 2
  store i64 %30, ptr %5, align 8
  br label %31

31:                                               ; preds = %27, %25
  br label %32

32:                                               ; preds = %31, %12
  %33 = load i64, ptr %5, align 8
  call void @_ZN6marisa8grimoire6vector6VectorIcE7reallocEm(ptr noundef nonnull align 8 dereferenceable(41) %6, i64 noundef %33)
  br label %34

34:                                               ; preds = %32, %11
  ret void
}

; Function Attrs: mustprogress nounwind uwtable
define linkonce_odr noundef nonnull align 8 dereferenceable(112) ptr @_ZNK6marisa10scoped_ptrINS_8grimoire4trie5StateEEdeEv(ptr noundef nonnull align 8 dereferenceable(8) %0) #5 comdat align 2 {
  %2 = alloca ptr, align 8
  store ptr %0, ptr %2, align 8
  %3 = load ptr, ptr %2, align 8
  %4 = getelementptr inbounds %"class.marisa::scoped_ptr", ptr %3, i32 0, i32 0
  %5 = load ptr, ptr %4, align 8
  ret ptr %5
}

; Function Attrs: mustprogress uwtable
define linkonce_odr noundef zeroext i1 @_ZNK6marisa8grimoire6vector9BitVectorixEm(ptr noundef nonnull align 8 dereferenceable(208) %0, i64 noundef %1) #4 comdat align 2 {
  %3 = alloca ptr, align 8
  %4 = alloca i64, align 8
  store ptr %0, ptr %3, align 8
  store i64 %1, ptr %4, align 8
  %5 = load ptr, ptr %3, align 8
  %6 = getelementptr inbounds %"class.marisa::grimoire::vector::BitVector", ptr %5, i32 0, i32 0
  %7 = load i64, ptr %4, align 8
  %8 = udiv i64 %7, 64
  %9 = call noundef nonnull align 8 dereferenceable(8) ptr @_ZNK6marisa8grimoire6vector6VectorImEixEm(ptr noundef nonnull align 8 dereferenceable(41) %6, i64 noundef %8)
  %10 = load i64, ptr %9, align 8
  %11 = load i64, ptr %4, align 8
  %12 = urem i64 %11, 64
  %13 = shl i64 1, %12
  %14 = and i64 %10, %13
  %15 = icmp ne i64 %14, 0
  ret i1 %15
}

; Function Attrs: mustprogress uwtable
define linkonce_odr void @_ZN6marisa8grimoire6vector6VectorIcE9push_backERKc(ptr noundef nonnull align 8 dereferenceable(41) %0, ptr noundef nonnull align 1 dereferenceable(1) %1) #4 comdat align 2 {
  %3 = alloca ptr, align 8
  %4 = alloca ptr, align 8
  store ptr %0, ptr %3, align 8
  store ptr %1, ptr %4, align 8
  %5 = load ptr, ptr %3, align 8
  %6 = getelementptr inbounds %"class.marisa::grimoire::vector::Vector", ptr %5, i32 0, i32 3
  %7 = load i64, ptr %6, align 8
  %8 = add i64 %7, 1
  call void @_ZN6marisa8grimoire6vector6VectorIcE7reserveEm(ptr noundef nonnull align 8 dereferenceable(41) %5, i64 noundef %8)
  %9 = getelementptr inbounds %"class.marisa::grimoire::vector::Vector", ptr %5, i32 0, i32 1
  %10 = load ptr, ptr %9, align 8
  %11 = getelementptr inbounds %"class.marisa::grimoire::vector::Vector", ptr %5, i32 0, i32 3
  %12 = load i64, ptr %11, align 8
  %13 = getelementptr inbounds i8, ptr %10, i64 %12
  %14 = load ptr, ptr %4, align 8
  %15 = load i8, ptr %14, align 1
  store i8 %15, ptr %13, align 1
  %16 = getelementptr inbounds %"class.marisa::grimoire::vector::Vector", ptr %5, i32 0, i32 3
  %17 = load i64, ptr %16, align 8
  %18 = add i64 %17, 1
  store i64 %18, ptr %16, align 8
  ret void
}

; Function Attrs: mustprogress nounwind uwtable
define linkonce_odr noundef nonnull align 8 dereferenceable(41) ptr @_ZN6marisa8grimoire4trie5State7key_bufEv(ptr noundef nonnull align 8 dereferenceable(112) %0) #5 comdat align 2 {
  %2 = alloca ptr, align 8
  store ptr %0, ptr %2, align 8
  %3 = load ptr, ptr %2, align 8
  %4 = getelementptr inbounds %"class.marisa::grimoire::trie::State", ptr %3, i32 0, i32 0
  ret ptr %4
}

; Function Attrs: mustprogress nounwind uwtable
define linkonce_odr noundef nonnull align 1 dereferenceable(1) ptr @_ZNK6marisa8grimoire6vector6VectorIcEixEm(ptr noundef nonnull align 8 dereferenceable(41) %0, i64 noundef %1) #5 comdat align 2 {
  %3 = alloca ptr, align 8
  %4 = alloca i64, align 8
  store ptr %0, ptr %3, align 8
  store i64 %1, ptr %4, align 8
  %5 = load ptr, ptr %3, align 8
  %6 = getelementptr inbounds %"class.marisa::grimoire::vector::Vector", ptr %5, i32 0, i32 2
  %7 = load ptr, ptr %6, align 8
  %8 = load i64, ptr %4, align 8
  %9 = getelementptr inbounds i8, ptr %7, i64 %8
  ret ptr %9
}

; Function Attrs: mustprogress nounwind uwtable
define linkonce_odr noundef zeroext i1 @_ZNK6marisa8grimoire6vector9BitVector5emptyEv(ptr noundef nonnull align 8 dereferenceable(208) %0) #5 comdat align 2 {
  %2 = alloca ptr, align 8
  store ptr %0, ptr %2, align 8
  %3 = load ptr, ptr %2, align 8
  %4 = getelementptr inbounds %"class.marisa::grimoire::vector::BitVector", ptr %3, i32 0, i32 1
  %5 = load i64, ptr %4, align 8
  %6 = icmp eq i64 %5, 0
  ret i1 %6
}

; Function Attrs: mustprogress uwtable
define linkonce_odr noundef nonnull align 8 dereferenceable(112) ptr @_ZN6marisa5Agent5stateEv(ptr noundef nonnull align 8 dereferenceable(48) %0) #4 comdat align 2 {
  %2 = alloca ptr, align 8
  store ptr %0, ptr %2, align 8
  %3 = load ptr, ptr %2, align 8
  %4 = getelementptr inbounds %"class.marisa::Agent", ptr %3, i32 0, i32 2
  %5 = call noundef nonnull align 8 dereferenceable(112) ptr @_ZNK6marisa10scoped_ptrINS_8grimoire4trie5StateEEdeEv(ptr noundef nonnull align 8 dereferenceable(8) %4)
  ret ptr %5
}

; Function Attrs: mustprogress uwtable
define void @_ZNK6marisa8grimoire4trie4Tail7restoreERNS_5AgentEm(ptr noundef nonnull align 8 dereferenceable(256) %0, ptr noundef nonnull align 8 dereferenceable(48) %1, i64 noundef %2) #4 align 2 {
  %4 = alloca ptr, align 8
  %5 = alloca ptr, align 8
  %6 = alloca i64, align 8
  %7 = alloca ptr, align 8
  %8 = alloca ptr, align 8
  store ptr %0, ptr %4, align 8
  store ptr %1, ptr %5, align 8
  store i64 %2, ptr %6, align 8
  %9 = load ptr, ptr %4, align 8
  %10 = load ptr, ptr %5, align 8
  %11 = call noundef nonnull align 8 dereferenceable(112) ptr @_ZN6marisa5Agent5stateEv(ptr noundef nonnull align 8 dereferenceable(48) %10)
  store ptr %11, ptr %7, align 8
  %12 = getelementptr inbounds %"class.marisa::grimoire::trie::Tail", ptr %9, i32 0, i32 1
  %13 = call noundef zeroext i1 @_ZNK6marisa8grimoire6vector9BitVector5emptyEv(ptr noundef nonnull align 8 dereferenceable(208) %12)
  br i1 %13, label %14, label %31

14:                                               ; preds = %3
  %15 = getelementptr inbounds %"class.marisa::grimoire::trie::Tail", ptr %9, i32 0, i32 0
  %16 = load i64, ptr %6, align 8
  %17 = call noundef nonnull align 1 dereferenceable(1) ptr @_ZNK6marisa8grimoire6vector6VectorIcEixEm(ptr noundef nonnull align 8 dereferenceable(41) %15, i64 noundef %16)
  store ptr %17, ptr %8, align 8
  br label %18

18:                                               ; preds = %27, %14
  %19 = load ptr, ptr %8, align 8
  %20 = load i8, ptr %19, align 1
  %21 = sext i8 %20 to i32
  %22 = icmp ne i32 %21, 0
  br i1 %22, label %23, label %30

23:                                               ; preds = %18
  %24 = load ptr, ptr %7, align 8
  %25 = call noundef nonnull align 8 dereferenceable(41) ptr @_ZN6marisa8grimoire4trie5State7key_bufEv(ptr noundef nonnull align 8 dereferenceable(112) %24)
  %26 = load ptr, ptr %8, align 8
  call void @_ZN6marisa8grimoire6vector6VectorIcE9push_backERKc(ptr noundef nonnull align 8 dereferenceable(41) %25, ptr noundef nonnull align 1 dereferenceable(1) %26)
  br label %27

27:                                               ; preds = %23
  %28 = load ptr, ptr %8, align 8
  %29 = getelementptr inbounds i8, ptr %28, i32 1
  store ptr %29, ptr %8, align 8
  br label %18, !llvm.loop !13

30:                                               ; preds = %18
  br label %45

31:                                               ; preds = %3
  br label %32

32:                                               ; preds = %38, %31
  %33 = load ptr, ptr %7, align 8
  %34 = call noundef nonnull align 8 dereferenceable(41) ptr @_ZN6marisa8grimoire4trie5State7key_bufEv(ptr noundef nonnull align 8 dereferenceable(112) %33)
  %35 = getelementptr inbounds %"class.marisa::grimoire::trie::Tail", ptr %9, i32 0, i32 0
  %36 = load i64, ptr %6, align 8
  %37 = call noundef nonnull align 1 dereferenceable(1) ptr @_ZNK6marisa8grimoire6vector6VectorIcEixEm(ptr noundef nonnull align 8 dereferenceable(41) %35, i64 noundef %36)
  call void @_ZN6marisa8grimoire6vector6VectorIcE9push_backERKc(ptr noundef nonnull align 8 dereferenceable(41) %34, ptr noundef nonnull align 1 dereferenceable(1) %37)
  br label %38

38:                                               ; preds = %32
  %39 = getelementptr inbounds %"class.marisa::grimoire::trie::Tail", ptr %9, i32 0, i32 1
  %40 = load i64, ptr %6, align 8
  %41 = add i64 %40, 1
  store i64 %41, ptr %6, align 8
  %42 = call noundef zeroext i1 @_ZNK6marisa8grimoire6vector9BitVectorixEm(ptr noundef nonnull align 8 dereferenceable(208) %39, i64 noundef %40)
  %43 = xor i1 %42, true
  br i1 %43, label %32, label %44, !llvm.loop !14

44:                                               ; preds = %38
  br label %45

45:                                               ; preds = %44, %30
  ret void
}