; Function Attrs: mustprogress nounwind uwtable
define void @_ZNK6marisa8grimoire4trie4Tail7restoreERNS_5AgentEm(ptr nocapture noundef nonnull readonly align 8 dereferenceable(256) %0, ptr nocapture noundef nonnull readonly align 8 dereferenceable(48) %1, i64 noundef %2) local_unnamed_addr #5 align 2 {
  %4 = getelementptr inbounds i8, ptr %1, i64 40
  %5 = load ptr, ptr %4, align 8
  %6 = getelementptr inbounds i8, ptr %0, i64 96
  %7 = load i64, ptr %6, align 8
  %8 = icmp eq i64 %7, 0
  %9 = getelementptr inbounds i8, ptr %0, i64 16
  br i1 %8, label %15, label %.preheader

.preheader:                                       ; preds = %3
  %10 = getelementptr inbounds i8, ptr %5, i64 24
  %11 = getelementptr inbounds i8, ptr %5, i64 32
  %12 = getelementptr inbounds i8, ptr %5, i64 8
  %13 = getelementptr inbounds i8, ptr %5, i64 16
  %14 = getelementptr inbounds i8, ptr %0, i64 64
  %.pre = load i64, ptr %10, align 8
  br label %49

15:                                               ; preds = %3
  %16 = load ptr, ptr %9, align 8
  %17 = getelementptr inbounds i8, ptr %16, i64 %2
  %18 = load i8, ptr %17, align 1
  %.not23 = icmp eq i8 %18, 0
  br i1 %.not23, label %.loopexit, label %.lr.ph

.lr.ph:                                           ; preds = %15
  %19 = getelementptr inbounds i8, ptr %5, i64 24
  %20 = getelementptr inbounds i8, ptr %5, i64 32
  %21 = getelementptr inbounds i8, ptr %5, i64 8
  %22 = getelementptr inbounds i8, ptr %5, i64 16
  %.pre26 = load i64, ptr %19, align 8
  br label %23

23:                                               ; preds = %.lr.ph, %_ZN6marisa8grimoire6vector6VectorIcE9push_backERKc.exit
  %24 = phi i64 [ %.pre26, %.lr.ph ], [ %46, %_ZN6marisa8grimoire6vector6VectorIcE9push_backERKc.exit ]
  %.024 = phi ptr [ %17, %.lr.ph ], [ %47, %_ZN6marisa8grimoire6vector6VectorIcE9push_backERKc.exit ]
  %25 = add i64 %24, 1
  %26 = load i64, ptr %20, align 8
  %.not.i.i = icmp ult i64 %26, %25
  br i1 %.not.i.i, label %27, label %_ZN6marisa8grimoire6vector6VectorIcE9push_backERKc.exit

27:                                               ; preds = %23
  %28 = lshr i64 %25, 1
  %29 = icmp ugt i64 %26, %28
  %30 = shl nuw i64 %26, 1
  %.inv.i.i = icmp sgt i64 %26, -1
  %spec.select.i.i = select i1 %.inv.i.i, i64 %30, i64 -1
  %.0.i.i = select i1 %29, i64 %spec.select.i.i, i64 %25
  %31 = tail call noalias noundef ptr @_ZnamRKSt9nothrow_t(i64 noundef %.0.i.i, ptr noundef nonnull align 1 dereferenceable(1) @_ZSt7nothrow) #17
  %.not.i.i.i = icmp eq i64 %24, 0
  br i1 %.not.i.i.i, label %.preheader.i.i.i, label %.lr.ph.i.i.i

.lr.ph.i.i.i:                                     ; preds = %27
  %32 = load ptr, ptr %21, align 8
  br label %35

.preheader.i.i.i:                                 ; preds = %35, %27
  %33 = load ptr, ptr %5, align 8
  store ptr %31, ptr %5, align 8
  store ptr %31, ptr %21, align 8
  store ptr %31, ptr %22, align 8
  store i64 %.0.i.i, ptr %20, align 8
  %34 = icmp eq ptr %33, null
  br i1 %34, label %_ZN6marisa8grimoire6vector6VectorIcE9push_backERKc.exit, label %40

35:                                               ; preds = %35, %.lr.ph.i.i.i
  %.01114.i.i.i = phi i64 [ 0, %.lr.ph.i.i.i ], [ %39, %35 ]
  %36 = getelementptr inbounds i8, ptr %31, i64 %.01114.i.i.i
  %37 = getelementptr inbounds i8, ptr %32, i64 %.01114.i.i.i
  %38 = load i8, ptr %37, align 1
  store i8 %38, ptr %36, align 1
  %39 = add nuw i64 %.01114.i.i.i, 1
  %exitcond.not.i.i.i = icmp eq i64 %39, %24
  br i1 %exitcond.not.i.i.i, label %.preheader.i.i.i, label %35, !llvm.loop !9

40:                                               ; preds = %.preheader.i.i.i
  tail call void @_ZdaPv(ptr noundef nonnull %33) #16
  %.pre.i = load i64, ptr %19, align 8
  br label %_ZN6marisa8grimoire6vector6VectorIcE9push_backERKc.exit

_ZN6marisa8grimoire6vector6VectorIcE9push_backERKc.exit: ; preds = %23, %.preheader.i.i.i, %40
  %41 = phi i64 [ %24, %23 ], [ %24, %.preheader.i.i.i ], [ %.pre.i, %40 ]
  %42 = load ptr, ptr %21, align 8
  %43 = getelementptr inbounds i8, ptr %42, i64 %41
  %44 = load i8, ptr %.024, align 1
  store i8 %44, ptr %43, align 1
  %45 = load i64, ptr %19, align 8
  %46 = add i64 %45, 1
  store i64 %46, ptr %19, align 8
  %47 = getelementptr inbounds i8, ptr %.024, i64 1
  %48 = load i8, ptr %47, align 1
  %.not = icmp eq i8 %48, 0
  br i1 %.not, label %.loopexit, label %23, !llvm.loop !15

49:                                               ; preds = %.preheader, %_ZN6marisa8grimoire6vector6VectorIcE9push_backERKc.exit20
  %50 = phi i64 [ %74, %_ZN6marisa8grimoire6vector6VectorIcE9push_backERKc.exit20 ], [ %.pre, %.preheader ]
  %.09 = phi i64 [ %75, %_ZN6marisa8grimoire6vector6VectorIcE9push_backERKc.exit20 ], [ %2, %.preheader ]
  %51 = load ptr, ptr %9, align 8
  %52 = getelementptr inbounds i8, ptr %51, i64 %.09
  %53 = add i64 %50, 1
  %54 = load i64, ptr %11, align 8
  %.not.i.i10 = icmp ult i64 %54, %53
  br i1 %.not.i.i10, label %55, label %_ZN6marisa8grimoire6vector6VectorIcE9push_backERKc.exit20

55:                                               ; preds = %49
  %56 = lshr i64 %53, 1
  %57 = icmp ugt i64 %54, %56
  %58 = shl nuw i64 %54, 1
  %.inv.i.i11 = icmp sgt i64 %54, -1
  %spec.select.i.i12 = select i1 %.inv.i.i11, i64 %58, i64 -1
  %.0.i.i13 = select i1 %57, i64 %spec.select.i.i12, i64 %53
  %59 = tail call noalias noundef ptr @_ZnamRKSt9nothrow_t(i64 noundef %.0.i.i13, ptr noundef nonnull align 1 dereferenceable(1) @_ZSt7nothrow) #17
  %.not.i.i.i14 = icmp eq i64 %50, 0
  br i1 %.not.i.i.i14, label %.preheader.i.i.i18, label %.lr.ph.i.i.i15

.lr.ph.i.i.i15:                                   ; preds = %55
  %60 = load ptr, ptr %12, align 8
  br label %63

.preheader.i.i.i18:                               ; preds = %63, %55
  %61 = load ptr, ptr %5, align 8
  store ptr %59, ptr %5, align 8
  store ptr %59, ptr %12, align 8
  store ptr %59, ptr %13, align 8
  store i64 %.0.i.i13, ptr %11, align 8
  %62 = icmp eq ptr %61, null
  br i1 %62, label %_ZN6marisa8grimoire6vector6VectorIcE9push_backERKc.exit20, label %68

63:                                               ; preds = %63, %.lr.ph.i.i.i15
  %.01114.i.i.i16 = phi i64 [ 0, %.lr.ph.i.i.i15 ], [ %67, %63 ]
  %64 = getelementptr inbounds i8, ptr %59, i64 %.01114.i.i.i16
  %65 = getelementptr inbounds i8, ptr %60, i64 %.01114.i.i.i16
  %66 = load i8, ptr %65, align 1
  store i8 %66, ptr %64, align 1
  %67 = add nuw i64 %.01114.i.i.i16, 1
  %exitcond.not.i.i.i17 = icmp eq i64 %67, %50
  br i1 %exitcond.not.i.i.i17, label %.preheader.i.i.i18, label %63, !llvm.loop !9

68:                                               ; preds = %.preheader.i.i.i18
  tail call void @_ZdaPv(ptr noundef nonnull %61) #16
  %.pre.i19 = load i64, ptr %10, align 8
  br label %_ZN6marisa8grimoire6vector6VectorIcE9push_backERKc.exit20

_ZN6marisa8grimoire6vector6VectorIcE9push_backERKc.exit20: ; preds = %49, %.preheader.i.i.i18, %68
  %69 = phi i64 [ %50, %49 ], [ %50, %.preheader.i.i.i18 ], [ %.pre.i19, %68 ]
  %70 = load ptr, ptr %12, align 8
  %71 = getelementptr inbounds i8, ptr %70, i64 %69
  %72 = load i8, ptr %52, align 1
  store i8 %72, ptr %71, align 1
  %73 = load i64, ptr %10, align 8
  %74 = add i64 %73, 1
  store i64 %74, ptr %10, align 8
  %75 = add i64 %.09, 1
  %76 = lshr i64 %.09, 6
  %77 = load ptr, ptr %14, align 8
  %78 = getelementptr inbounds i64, ptr %77, i64 %76
  %79 = load i64, ptr %78, align 8
  %80 = and i64 %.09, 63
  %81 = shl nuw i64 1, %80
  %82 = and i64 %79, %81
  %.not21 = icmp eq i64 %82, 0
  br i1 %.not21, label %49, label %.loopexit, !llvm.loop !16

.loopexit:                                        ; preds = %_ZN6marisa8grimoire6vector6VectorIcE9push_backERKc.exit20, %_ZN6marisa8grimoire6vector6VectorIcE9push_backERKc.exit, %15
  ret void
}